; Function Attrs: mustprogress nofree norecurse nosync nounwind willreturn memory(read, inaccessiblemem: none) uwtable
define dso_local zeroext i1 @parse_current_is_expr(ptr nocapture noundef readonly %0) local_unnamed_addr #0 {
  %2 = getelementptr inbounds i8, ptr %0, i64 40
  %3 = load i32, ptr %2, align 8
  %4 = zext i32 %3 to i64
  %5 = getelementptr inbounds [190 x %struct.ParseRule], ptr @rules, i64 0, i64 %4
  %6 = load ptr, ptr %5, align 8
  %7 = icmp ne ptr %6, null
  ret i1 %7
}